; Function Attrs: mustprogress nounwind uwtable
define internal fastcc noundef nonnull ptr @_ZN4llvh16itanium_demangle2DbIN12_GLOBAL__N_116DefaultAllocatorEE4makeINS0_13EnclosingExprEJRA9_KcRPNS0_4NodeERA2_S7_EEESB_DpOT0_(ptr nocapture noundef nonnull align 16 dereferenceable(4864) %this, ptr noundef nonnull align 1 dereferenceable(9) %args, ptr nocapture noundef nonnull readonly align 8 dereferenceable(8) %args1) unnamed_addr #1 align 2 {
entry:
  %BlockList.i.i = getelementptr inbounds i8, ptr %this, i64 4848
  %0 = load ptr, ptr %BlockList.i.i, align 16
  %Current.i.i = getelementptr inbounds i8, ptr %0, i64 8
  %1 = load i64, ptr %Current.i.i, align 8
  %2 = add i64 %1, -4016
  %cmp.i.i = icmp ult i64 %2, -4080
  br i1 %cmp.i.i, label %if.then.i.i, label %_ZN12_GLOBAL__N_116DefaultAllocator8makeNodeIN4llvh16itanium_demangle13EnclosingExprEJRA9_KcRPNS3_4NodeERA2_S5_EEEPT_DpOT0_.exit

if.then.i.i:                                      ; preds = %entry
  %call.i6.i.i = tail call noalias dereferenceable_or_null(4096) ptr @malloc(i64 noundef 4096) #19
  %cmp.i7.i.i = icmp eq ptr %call.i6.i.i, null
  br i1 %cmp.i7.i.i, label %if.then.i9.i.i, label %_ZN12_GLOBAL__N_120BumpPointerAllocator4growEv.exit.i.i

if.then.i9.i.i:                                   ; preds = %if.then.i.i
  tail call void @_ZSt9terminatev() #22
  unreachable

_ZN12_GLOBAL__N_120BumpPointerAllocator4growEv.exit.i.i: ; preds = %if.then.i.i
  store ptr %0, ptr %call.i6.i.i, align 8
  %Current.i8.i.i = getelementptr inbounds i8, ptr %call.i6.i.i, i64 8
  store i64 0, ptr %Current.i8.i.i, align 8
  store ptr %call.i6.i.i, ptr %BlockList.i.i, align 16
  br label %_ZN12_GLOBAL__N_116DefaultAllocator8makeNodeIN4llvh16itanium_demangle13EnclosingExprEJRA9_KcRPNS3_4NodeERA2_S5_EEEPT_DpOT0_.exit

_ZN12_GLOBAL__N_116DefaultAllocator8makeNodeIN4llvh16itanium_demangle13EnclosingExprEJRA9_KcRPNS3_4NodeERA2_S5_EEEPT_DpOT0_.exit: ; preds = %entry, %_ZN12_GLOBAL__N_120BumpPointerAllocator4growEv.exit.i.i
  %3 = phi i64 [ 0, %_ZN12_GLOBAL__N_120BumpPointerAllocator4growEv.exit.i.i ], [ %1, %entry ]
  %4 = phi ptr [ %call.i6.i.i, %_ZN12_GLOBAL__N_120BumpPointerAllocator4growEv.exit.i.i ], [ %0, %entry ]
  %Current7.i.i = getelementptr inbounds i8, ptr %4, i64 8
  %add8.i.i = add nsw i64 %3, 64
  store i64 %add8.i.i, ptr %Current7.i.i, align 8
  %5 = load ptr, ptr %BlockList.i.i, align 16
  %add.ptr.i.i = getelementptr inbounds i8, ptr %5, i64 16
  %Current11.i.i = getelementptr inbounds i8, ptr %5, i64 8
  %6 = load i64, ptr %Current11.i.i, align 8
  %add.ptr12.i.i = getelementptr inbounds i8, ptr %add.ptr.i.i, i64 %6
  %add.ptr13.i.i = getelementptr inbounds i8, ptr %add.ptr12.i.i, i64 -64
  %call.i.i = tail call i64 @strlen(ptr noundef nonnull dereferenceable(1) %args) #18
  %add.ptr.i1.i = getelementptr inbounds i8, ptr %args, i64 %call.i.i
  %7 = load ptr, ptr %args1, align 8
  %K.i.i.i = getelementptr inbounds i8, ptr %add.ptr12.i.i, i64 -56
  store <4 x i8> <i8 47, i8 1, i8 1, i8 1>, ptr %K.i.i.i, align 8
  store ptr getelementptr inbounds ({ [11 x ptr] }, ptr @_ZTVN4llvh16itanium_demangle13EnclosingExprE, i64 0, i32 0, i64 2), ptr %add.ptr13.i.i, align 8
  %Prefix.i.i = getelementptr inbounds i8, ptr %add.ptr12.i.i, i64 -48
  store ptr %args, ptr %Prefix.i.i, align 8
  %Prefix_.sroa.2.0.Prefix.sroa_idx.i.i = getelementptr inbounds i8, ptr %add.ptr12.i.i, i64 -40
  store ptr %add.ptr.i1.i, ptr %Prefix_.sroa.2.0.Prefix.sroa_idx.i.i, align 8
  %Infix.i.i = getelementptr inbounds i8, ptr %add.ptr12.i.i, i64 -32
  store ptr %7, ptr %Infix.i.i, align 8
  %Postfix.i.i = getelementptr inbounds i8, ptr %add.ptr12.i.i, i64 -24
  store ptr @.str.27, ptr %Postfix.i.i, align 8
  %Postfix_.sroa.2.0.Postfix.sroa_idx.i.i = getelementptr inbounds i8, ptr %add.ptr12.i.i, i64 -16
  store ptr getelementptr inbounds ([2 x i8], ptr @.str.27, i64 0, i64 1), ptr %Postfix_.sroa.2.0.Postfix.sroa_idx.i.i, align 8
  ret ptr %add.ptr13.i.i
}